target datalayout = "e-m:e-p270:32:32-p271:32:32-p272:64:64-i64:64-i128:128-f80:128-n8:16:32:64-S128"
target triple = "x86_64-pc-linux-gnu"

%"class.std::vector" = type { %"struct.std::_Vector_base" }
%"struct.std::_Vector_base" = type { %"struct.std::_Vector_base<std::__cxx11::basic_string<char>, std::allocator<std::__cxx11::basic_string<char>>>::_Vector_impl" }
%"struct.std::_Vector_base<std::__cxx11::basic_string<char>, std::allocator<std::__cxx11::basic_string<char>>>::_Vector_impl" = type { %"struct.std::_Vector_base<std::__cxx11::basic_string<char>, std::allocator<std::__cxx11::basic_string<char>>>::_Vector_impl_data" }
%"struct.std::_Vector_base<std::__cxx11::basic_string<char>, std::allocator<std::__cxx11::basic_string<char>>>::_Vector_impl_data" = type { ptr, ptr, ptr }
%"class.std::__cxx11::basic_string" = type { %"struct.std::__cxx11::basic_string<char>::_Alloc_hider", i64, %union.anon }
%"struct.std::__cxx11::basic_string<char>::_Alloc_hider" = type { ptr }
%union.anon = type { i64, [8 x i8] }
%class.TransTableL = type { %class.TransTable, i32, i32, i32, i32, i32, i32, %"struct.TransTableL::pageStatsType", [8192 x %"struct.TransTableL::aggrType"], [12 x [4 x ptr]], [12 x [4 x ptr]], ptr, ptr, %"struct.TransTableL::harvestedType", i32, i32 }
%class.TransTable = type { ptr }
%"struct.TransTableL::pageStatsType" = type { i32, i32, i32, i32, i32 }
%"struct.TransTableL::aggrType" = type { [4 x i32], [4 x [4 x i32]] }
%"struct.TransTableL::harvestedType" = type { i32, [1000 x ptr] }
%"struct.TransTableL::distHashType" = type { i32, i32, [32 x %"struct.TransTableL::posSearchType"] }
%"struct.TransTableL::posSearchType" = type { ptr, i64 }
%"struct.TransTableL::winBlockType" = type { i32, i32, i32, [125 x %"struct.TransTableL::winMatchType"] }
%"struct.TransTableL::winMatchType" = type { i32, i32, i32, i32, i32, i32, i32, i32, i32, i32, i32, %struct.nodeCardsType }
%struct.nodeCardsType = type { i8, i8, i8, i8, [4 x i8] }

@_ZL7playersB5cxx11 = internal global %"class.std::vector" zeroinitializer, align 8
@.str.7 = private unnamed_addr constant [2 x i8] c"\0A\00", align 1
@.str.41 = private unnamed_addr constant [27 x i8] c"Entry histogram for trick \00", align 1
@.str.42 = private unnamed_addr constant [9 x i8] c", hands \00", align 1

; Function Attrs: mustprogress nounwind uwtable
define linkonce_odr noundef nonnull align 8 dereferenceable(32) ptr @_ZNSt6vectorINSt7__cxx1112basic_stringIcSt11char_traitsIcESaIcEEESaIS5_EEixEm(ptr noundef nonnull align 8 dereferenceable(24) %0, i64 noundef %1) #5 comdat align 2 {
  %3 = alloca ptr, align 8
  %4 = alloca i64, align 8
  store ptr %0, ptr %3, align 8
  store i64 %1, ptr %4, align 8
  %5 = load ptr, ptr %3, align 8
  %6 = getelementptr inbounds nuw %"struct.std::_Vector_base", ptr %5, i32 0, i32 0
  %7 = getelementptr inbounds nuw %"struct.std::_Vector_base<std::__cxx11::basic_string<char>, std::allocator<std::__cxx11::basic_string<char>>>::_Vector_impl_data", ptr %6, i32 0, i32 0
  %8 = load ptr, ptr %7, align 8
  %9 = load i64, ptr %4, align 8
  %10 = getelementptr inbounds %"class.std::__cxx11::basic_string", ptr %8, i64 %9
  ret ptr %10
}

; Function Attrs: mustprogress nounwind uwtable
define void @_ZNK11TransTableL15UpdateEntryHistEiiPiRi(ptr noundef nonnull align 8 dereferenceable(664216) %0, i32 noundef %1, i32 noundef %2, ptr noundef %3, ptr noundef nonnull align 4 dereferenceable(4) %4) #5 align 2 {
  %6 = alloca ptr, align 8
  %7 = alloca i32, align 4
  %8 = alloca i32, align 4
  %9 = alloca ptr, align 8
  %10 = alloca ptr, align 8
  %11 = alloca ptr, align 8
  %12 = alloca i32, align 4
  %13 = alloca i32, align 4
  %14 = alloca i32, align 4
  %15 = alloca i32, align 4
  store ptr %0, ptr %6, align 8
  store i32 %1, ptr %7, align 4
  store i32 %2, ptr %8, align 4
  store ptr %3, ptr %9, align 8
  store ptr %4, ptr %10, align 8
  %16 = load ptr, ptr %6, align 8
  %17 = load ptr, ptr %10, align 8
  store i32 0, ptr %17, align 4
  store i32 0, ptr %12, align 4
  br label %18

18:                                               ; preds = %26, %5
  %19 = load i32, ptr %12, align 4
  %20 = icmp sle i32 %19, 125
  br i1 %20, label %21, label %29

21:                                               ; preds = %18
  %22 = load ptr, ptr %9, align 8
  %23 = load i32, ptr %12, align 4
  %24 = sext i32 %23 to i64
  %25 = getelementptr inbounds i32, ptr %22, i64 %24
  store i32 0, ptr %25, align 4
  br label %26

26:                                               ; preds = %21
  %27 = load i32, ptr %12, align 4
  %28 = add nsw i32 %27, 1
  store i32 %28, ptr %12, align 4
  br label %18, !llvm.loop !61

29:                                               ; preds = %18
  store i32 0, ptr %13, align 4
  br label %30

30:                                               ; preds = %87, %29
  %31 = load i32, ptr %13, align 4
  %32 = icmp slt i32 %31, 256
  br i1 %32, label %33, label %90

33:                                               ; preds = %30
  %34 = getelementptr inbounds nuw %class.TransTableL, ptr %16, i32 0, i32 9
  %35 = load i32, ptr %7, align 4
  %36 = sext i32 %35 to i64
  %37 = getelementptr inbounds [12 x [4 x ptr]], ptr %34, i64 0, i64 %36
  %38 = load i32, ptr %8, align 4
  %39 = sext i32 %38 to i64
  %40 = getelementptr inbounds [4 x ptr], ptr %37, i64 0, i64 %39
  %41 = load ptr, ptr %40, align 8
  %42 = load i32, ptr %13, align 4
  %43 = sext i32 %42 to i64
  %44 = getelementptr inbounds %"struct.TransTableL::distHashType", ptr %41, i64 %43
  store ptr %44, ptr %11, align 8
  store i32 0, ptr %14, align 4
  br label %45

45:                                               ; preds = %83, %33
  %46 = load i32, ptr %14, align 4
  %47 = load ptr, ptr %11, align 8
  %48 = getelementptr inbounds nuw %"struct.TransTableL::distHashType", ptr %47, i32 0, i32 0
  %49 = load i32, ptr %48, align 8
  %50 = icmp slt i32 %46, %49
  br i1 %50, label %51, label %86

51:                                               ; preds = %45
  %52 = load ptr, ptr %11, align 8
  %53 = getelementptr inbounds nuw %"struct.TransTableL::distHashType", ptr %52, i32 0, i32 2
  %54 = load i32, ptr %14, align 4
  %55 = sext i32 %54 to i64
  %56 = getelementptr inbounds [32 x %"struct.TransTableL::posSearchType"], ptr %53, i64 0, i64 %55
  %57 = getelementptr inbounds nuw %"struct.TransTableL::posSearchType", ptr %56, i32 0, i32 0
  %58 = load ptr, ptr %57, align 8
  %59 = getelementptr inbounds nuw %"struct.TransTableL::winBlockType", ptr %58, i32 0, i32 0
  %60 = load i32, ptr %59, align 4
  store i32 %60, ptr %15, align 4
  %61 = load ptr, ptr %9, align 8
  %62 = load i32, ptr %15, align 4
  %63 = sext i32 %62 to i64
  %64 = getelementptr inbounds i32, ptr %61, i64 %63
  %65 = load i32, ptr %64, align 4
  %66 = add nsw i32 %65, 1
  store i32 %66, ptr %64, align 4
  %67 = load i32, ptr %15, align 4
  %68 = load ptr, ptr %11, align 8
  %69 = getelementptr inbounds nuw %"struct.TransTableL::distHashType", ptr %68, i32 0, i32 2
  %70 = load i32, ptr %14, align 4
  %71 = sext i32 %70 to i64
  %72 = getelementptr inbounds [32 x %"struct.TransTableL::posSearchType"], ptr %69, i64 0, i64 %71
  %73 = getelementptr inbounds nuw %"struct.TransTableL::posSearchType", ptr %72, i32 0, i32 0
  %74 = load ptr, ptr %73, align 8
  %75 = getelementptr inbounds nuw %"struct.TransTableL::winBlockType", ptr %74, i32 0, i32 1
  %76 = load i32, ptr %75, align 4
  %77 = icmp ne i32 %67, %76
  br i1 %77, label %78, label %82

78:                                               ; preds = %51
  %79 = load ptr, ptr %10, align 8
  %80 = load i32, ptr %79, align 4
  %81 = add nsw i32 %80, 1
  store i32 %81, ptr %79, align 4
  br label %82

82:                                               ; preds = %78, %51
  br label %83

83:                                               ; preds = %82
  %84 = load i32, ptr %14, align 4
  %85 = add nsw i32 %84, 1
  store i32 %85, ptr %14, align 4
  br label %45, !llvm.loop !62

86:                                               ; preds = %45
  br label %87

87:                                               ; preds = %86
  %88 = load i32, ptr %13, align 4
  %89 = add nsw i32 %88, 1
  store i32 %89, ptr %13, align 4
  br label %30, !llvm.loop !63

90:                                               ; preds = %30
  ret void
}

; Function Attrs: mustprogress uwtable
define void @_ZNK11TransTableL15PrintEntryStatsERSt14basic_ofstreamIcSt11char_traitsIcEEii(ptr noundef nonnull align 8 dereferenceable(664216) %0, ptr noundef nonnull align 8 dereferenceable(248) %1, i32 noundef %2, i32 noundef %3) unnamed_addr #4 align 2 {
  %5 = alloca ptr, align 8
  %6 = alloca ptr, align 8
  %7 = alloca i32, align 4
  %8 = alloca i32, align 4
  %9 = alloca [126 x i32], align 16
  %10 = alloca i32, align 4
  store ptr %0, ptr %5, align 8
  store ptr %1, ptr %6, align 8
  store i32 %2, ptr %7, align 4
  store i32 %3, ptr %8, align 4
  %11 = load ptr, ptr %5, align 8
  %12 = load i32, ptr %7, align 4
  %13 = load i32, ptr %8, align 4
  %14 = getelementptr inbounds [126 x i32], ptr %9, i64 0, i64 0
  call void @_ZNK11TransTableL15UpdateEntryHistEiiPiRi(ptr noundef nonnull align 8 dereferenceable(664216) %11, i32 noundef %12, i32 noundef %13, ptr noundef %14, ptr noundef nonnull align 4 dereferenceable(4) %10)
  %15 = load ptr, ptr %6, align 8
  %16 = call noundef nonnull align 8 dereferenceable(8) ptr @_ZStlsISt11char_traitsIcEERSt13basic_ostreamIcT_ES5_PKc(ptr noundef nonnull align 8 dereferenceable(8) %15, ptr noundef @.str.41)
  %17 = load i32, ptr %7, align 4
  %18 = call noundef nonnull align 8 dereferenceable(8) ptr @_ZNSolsEi(ptr noundef nonnull align 8 dereferenceable(8) %16, i32 noundef %17)
  %19 = call noundef nonnull align 8 dereferenceable(8) ptr @_ZStlsISt11char_traitsIcEERSt13basic_ostreamIcT_ES5_PKc(ptr noundef nonnull align 8 dereferenceable(8) %18, ptr noundef @.str.42)
  %20 = load i32, ptr %8, align 4
  %21 = zext i32 %20 to i64
  %22 = call noundef nonnull align 8 dereferenceable(32) ptr @_ZNSt6vectorINSt7__cxx1112basic_stringIcSt11char_traitsIcESaIcEEESaIS5_EEixEm(ptr noundef nonnull align 8 dereferenceable(24) @_ZL7playersB5cxx11, i64 noundef %21) #3
  %23 = call noundef nonnull align 8 dereferenceable(8) ptr @_ZStlsIcSt11char_traitsIcESaIcEERSt13basic_ostreamIT_T0_ES7_RKNSt7__cxx1112basic_stringIS4_S5_T1_EE(ptr noundef nonnull align 8 dereferenceable(8) %19, ptr noundef nonnull align 8 dereferenceable(32) %22)
  %24 = call noundef nonnull align 8 dereferenceable(8) ptr @_ZStlsISt11char_traitsIcEERSt13basic_ostreamIcT_ES5_PKc(ptr noundef nonnull align 8 dereferenceable(8) %23, ptr noundef @.str.7)
  %25 = load ptr, ptr %6, align 8
  %26 = getelementptr inbounds [126 x i32], ptr %9, i64 0, i64 0
  %27 = load i32, ptr %10, align 4
  call void @_ZNK11TransTableL9PrintHistERSt14basic_ofstreamIcSt11char_traitsIcEEPKiii(ptr noundef nonnull align 8 dereferenceable(664216) %11, ptr noundef nonnull align 8 dereferenceable(248) %25, ptr noundef %26, i32 noundef %27, i32 noundef 125)
  ret void
}