; Function Attrs: mustprogress uwtable
define void @_ZNK11TransTableL15PrintEntryStatsERSt14basic_ofstreamIcSt11char_traitsIcEEii(ptr nocapture noundef nonnull readonly align 8 dereferenceable(664216) %0, ptr noundef nonnull align 8 dereferenceable(248) %1, i32 noundef %2, i32 noundef %3) unnamed_addr #21 align 2 {
  %5 = alloca [126 x i32], align 16
  call void @llvm.memset.p0.i64(ptr noundef nonnull align 16 dereferenceable(504) %5, i8 0, i64 504, i1 false)
  %6 = getelementptr inbounds nuw i8, ptr %0, i64 655416
  %7 = sext i32 %2 to i64
  %8 = sext i32 %3 to i64
  %9 = getelementptr inbounds [12 x [4 x ptr]], ptr %6, i64 0, i64 %7, i64 %8
  %10 = load ptr, ptr %9, align 8
  br label %11

11:                                               ; preds = %._crit_edge.i, %4
  %.0 = phi i32 [ 0, %4 ], [ %.1, %._crit_edge.i ]
  %indvars.iv28.i = phi i64 [ 0, %4 ], [ %indvars.iv.next29.i, %._crit_edge.i ]
  %12 = getelementptr inbounds %"struct.TransTableL::distHashType", ptr %10, i64 %indvars.iv28.i
  %13 = load i32, ptr %12, align 8
  %14 = icmp sgt i32 %13, 0
  br i1 %14, label %.lr.ph.i, label %._crit_edge.i

.lr.ph.i:                                         ; preds = %11
  %15 = getelementptr inbounds nuw i8, ptr %12, i64 8
  %16 = zext nneg i32 %13 to i64
  br label %17

17:                                               ; preds = %17, %.lr.ph.i
  %.2 = phi i32 [ %.0, %.lr.ph.i ], [ %spec.select, %17 ]
  %indvars.iv.i = phi i64 [ 0, %.lr.ph.i ], [ %indvars.iv.next.i, %17 ]
  %18 = getelementptr inbounds [32 x %"struct.TransTableL::posSearchType"], ptr %15, i64 0, i64 %indvars.iv.i
  %19 = load ptr, ptr %18, align 8
  %20 = load i32, ptr %19, align 4
  %21 = sext i32 %20 to i64
  %22 = getelementptr inbounds i32, ptr %5, i64 %21
  %23 = load i32, ptr %22, align 4
  %24 = add nsw i32 %23, 1
  store i32 %24, ptr %22, align 4
  %25 = getelementptr inbounds nuw i8, ptr %19, i64 4
  %26 = load i32, ptr %25, align 4
  %.not.i = icmp ne i32 %20, %26
  %27 = zext i1 %.not.i to i32
  %spec.select = add nsw i32 %.2, %27
  %indvars.iv.next.i = add nuw nsw i64 %indvars.iv.i, 1
  %exitcond.not = icmp eq i64 %indvars.iv.next.i, %16
  br i1 %exitcond.not, label %._crit_edge.i, label %17, !llvm.loop !88

._crit_edge.i:                                    ; preds = %17, %11
  %.1 = phi i32 [ %.0, %11 ], [ %spec.select, %17 ]
  %indvars.iv.next29.i = add nuw nsw i64 %indvars.iv28.i, 1
  %exitcond.not.i = icmp eq i64 %indvars.iv.next29.i, 256
  br i1 %exitcond.not.i, label %_ZNK11TransTableL15UpdateEntryHistEiiPiRi.exit, label %11, !llvm.loop !89

_ZNK11TransTableL15UpdateEntryHistEiiPiRi.exit:   ; preds = %._crit_edge.i
  %28 = tail call noundef nonnull align 8 dereferenceable(8) ptr @_ZStlsISt11char_traitsIcEERSt13basic_ostreamIcT_ES5_PKc(ptr noundef nonnull align 8 dereferenceable(8) %1, ptr noundef nonnull @.str.41)
  %29 = tail call noundef nonnull align 8 dereferenceable(8) ptr @_ZNSolsEi(ptr noundef nonnull align 8 dereferenceable(8) %28, i32 noundef %2)
  %30 = tail call noundef nonnull align 8 dereferenceable(8) ptr @_ZStlsISt11char_traitsIcEERSt13basic_ostreamIcT_ES5_PKc(ptr noundef nonnull align 8 dereferenceable(8) %29, ptr noundef nonnull @.str.42)
  %31 = zext i32 %3 to i64
  %32 = load ptr, ptr @_ZL7playersB5cxx11, align 8
  %33 = getelementptr inbounds %"class.std::__cxx11::basic_string", ptr %32, i64 %31
  %34 = tail call noundef nonnull align 8 dereferenceable(8) ptr @_ZStlsIcSt11char_traitsIcESaIcEERSt13basic_ostreamIT_T0_ES7_RKNSt7__cxx1112basic_stringIS4_S5_T1_EE(ptr noundef nonnull align 8 dereferenceable(8) %30, ptr noundef nonnull align 8 dereferenceable(32) %33)
  %35 = tail call noundef nonnull align 8 dereferenceable(8) ptr @_ZStlsISt11char_traitsIcEERSt13basic_ostreamIcT_ES5_PKc(ptr noundef nonnull align 8 dereferenceable(8) %34, ptr noundef nonnull @.str.7)
  call void @_ZNK11TransTableL9PrintHistERSt14basic_ofstreamIcSt11char_traitsIcEEPKiii(ptr nonnull align 8 poison, ptr noundef nonnull align 8 dereferenceable(248) %1, ptr noundef nonnull %5, i32 noundef %.1, i32 noundef 125)
  ret void
}